Certificate:
    Data:
        Version: 3 (0x2)
        Serial Number: 0 (0x0)
    Signature Algorithm: sha1WithRSAEncryption
        Issuer: C=ID, ST=asd, L=asd, O=asd, OU=asd, CN=asd/emailAddress=asd@gmail.com
        Validity
            Not Before: May  7 02:49:22 2015 GMT
            Not After : May  6 02:49:22 2016 GMT
        Subject: C=ID, ST=asd, L=asd, O=asd, OU=asd, CN=asd/emailAddress=asd@gmail.com
        Subject Public Key Info:
            Public Key Algorithm: rsaEncryption
                Public-Key: (2048 bit)
                Modulus:
                    00:ae:3e:d2:e6:86:97:4e:84:89:e9:d4:fe:e6:19:
                    5f:25:ce:9b:e3:a8:60:15:10:96:d3:66:d5:e1:9e:
                    6d:3c:fe:41:4a:7b:00:5d:05:95:22:2f:8f:f7:4b:
                    b6:95:66:1d:aa:52:c1:cc:07:e2:6d:ae:6f:72:34:
                    c5:f5:43:2b:68:1c:bb:b4:81:61:a3:d5:0b:cc:79:
                    f3:02:1c:f7:4c:65:01:82:21:02:ea:cc:33:67:00:
                    e1:82:38:b4:64:55:03:79:c4:5a:7c:ee:c6:77:3d:
                    fb:40:fe:fd:be:ef:9f:17:aa:ea:0c:e4:a5:1c:88:
                    44:ab:08:f7:96:6a:e2:a6:23:b7:49:fb:93:39:90:
                    c2:d1:0c:43:26:fd:19:a9:52:80:66:e0:a2:e4:cf:
                    88:48:11:01:7f:7d:b1:20:62:68:30:43:79:3d:62:
                    c4:9c:7e:0a:e1:e0:d1:d3:7f:fb:6e:c6:60:9a:10:
                    ab:57:2f:bc:2f:ab:a6:86:f1:f6:21:d2:68:92:d1:
                    aa:9f:42:66:10:c9:88:23:c2:00:5b:4e:74:ac:b3:
                    33:a7:fc:ae:74:62:4e:3f:d5:91:1d:77:c1:91:86:
                    03:d8:fc:e6:12:af:20:49:9a:ae:eb:89:16:09:f1:
                    2a:0f:e6:ef:dd:27:a3:64:57:99:90:f9:76:93:04:
                    15:bb
                Exponent: 65537 (0x10001)
        X509v3 extensions:
            X509v3 Subject Key Identifier: 
                22:6E:ED:CF:F8:3F:00:9B:25:57:C8:FC:64:26:06:86:BB:05:0D:1C
            X509v3 Authority Key Identifier: 
                keyid:22:6E:ED:CF:F8:3F:00:9B:25:57:C8:FC:64:26:06:86:BB:05:0D:1C

            X509v3 Basic Constraints: 
                CA:TRUE
    Signature Algorithm: sha1WithRSAEncryption
         91:67:7a:53:b8:4e:6c:a4:ed:21:27:70:c6:cc:0d:51:41:10:
         2e:d0:1e:35:2d:66:ac:60:e6:b5:d2:dc:54:54:01:f3:45:48:
         a3:a3:07:03:bc:9e:fc:61:6a:2d:41:57:d1:ee:c4:74:41:a9:
         74:56:d2:24:8d:ea:3d:da:0f:8a:59:fe:14:17:91:4e:94:7f:
         1a:7b:e6:3f:82:31:96:5c:65:bd:0f:35:5c:18:a7:4f:30:a0:
         59:94:70:3d:c9:97:ea:e2:9b:8d:23:96:a5:2b:74:a0:b8:a3:
         ff:c2:80:33:c8:5a:16:d1:51:09:b8:a0:5d:e0:13:73:8b:8c:
         c1:ff:c0:d2:f6:65:02:54:a2:f1:fe:56:40:68:02:a9:44:d9:
         87:f7:a0:69:bc:71:7e:67:40:27:06:b3:eb:e8:54:29:d4:fc:
         8f:39:83:24:9d:cb:50:ed:1e:b7:47:cb:81:b5:38:78:c3:b5:
         33:68:14:70:dd:1a:b2:88:a0:2e:22:1d:e1:61:0d:23:df:d3:
         28:94:25:82:7a:33:1c:37:79:bd:f9:16:d8:df:c2:46:a5:0a:
         ae:51:92:a9:8b:d5:77:5f:1d:1f:27:39:3e:3c:e5:15:eb:d7:
         28:4e:88:f8:b5:7a:49:31:ca:a6:93:49:aa:57:ee:86:14:c5:
         de:fc:69:ff
-----BEGIN CERTIFICATE-----
MIIDrTCCApWgAwIBAgIBADANBgkqhkiG9w0BAQUFADBxMQswCQYDVQQGEwJJRDEM
MAoGA1UECAwDYXNkMQwwCgYDVQQHDANhc2QxDDAKBgNVBAoMA2FzZDEMMAoGA1UE
CwwDYXNkMQwwCgYDVQQDDANhc2QxHDAaBgkqhkiG9w0BCQEWDWFzZEBnbWFpbC5j
b20wHhcNMTUwNTA3MDI0OTIyWhcNMTYwNTA2MDI0OTIyWjBxMQswCQYDVQQGEwJJ
RDEMMAoGA1UECAwDYXNkMQwwCgYDVQQHDANhc2QxDDAKBgNVBAoMA2FzZDEMMAoG
A1UECwwDYXNkMQwwCgYDVQQDDANhc2QxHDAaBgkqhkiG9w0BCQEWDWFzZEBnbWFp
bC5jb20wggEiMA0GCSqGSIb3DQEBAQUAA4IBDwAwggEKAoIBAQCuPtLmhpdOhInp
1P7mGV8lzpvjqGAVEJbTZtXhnm08/kFKewBdBZUiL4/3S7aVZh2qUsHMB+Jtrm9y
NMX1QytoHLu0gWGj1QvMefMCHPdMZQGCIQLqzDNnAOGCOLRkVQN5xFp87sZ3PftA
/v2+758XquoM5KUciESrCPeWauKmI7dJ+5M5kMLRDEMm/RmpUoBm4KLkz4hIEQF/
fbEgYmgwQ3k9YsScfgrh4NHTf/tuxmCaEKtXL7wvq6aG8fYh0miS0aqfQmYQyYgj
wgBbTnSsszOn/K50Yk4/1ZEdd8GRhgPY/OYSryBJmq7riRYJ8SoP5u/dJ6NkV5mQ
+XaTBBW7AgMBAAGjUDBOMB0GA1UdDgQWBBQibu3P+D8AmyVXyPxkJgaGuwUNHDAf
BgNVHSMEGDAWgBQibu3P+D8AmyVXyPxkJgaGuwUNHDAMBgNVHRMEBTADAQH/MA0G
CSqGSIb3DQEBBQUAA4IBAQCRZ3pTuE5spO0hJ3DGzA1RQRAu0B41LWasYOa10txU
VAHzRUijowcDvJ78YWotQVfR7sR0Qal0VtIkjeo92g+KWf4UF5FOlH8ae+Y/gjGW
XGW9DzVcGKdPMKBZlHA9yZfq4puNI5alK3SguKP/woAzyFoW0VEJuKBd4BNzi4zB
/8DS9mUCVKLx/lZAaAKpRNmH96BpvHF+Z0AnBrPr6FQp1PyPOYMknctQ7R63R8uB
tTh4w7UzaBRw3RqyiKAuIh3hYQ0j39MolCWCejMcN3m9+RbY38JGpQquUZKpi9V3
Xx0fJzk+POUV69coToj4tXpJMcqmk0mqV+6GFMXe/Gn/
-----END CERTIFICATE-----
