Certificate:
    Data:
        Version: 3 (0x2)
        Serial Number: 0 (0x0)
    Signature Algorithm: sha1WithRSAEncryption
        Issuer: C=ID, ST=Jatim, L=Sby, O=ba, OU=sada, CN=lina/emailAddress=lian@gmail.com
        Validity
            Not Before: May 17 10:02:34 2015 GMT
            Not After : May 16 10:02:34 2016 GMT
        Subject: C=ID, ST=Jatim, L=Sby, O=ba, OU=sada, CN=lina/emailAddress=lian@gmail.com
        Subject Public Key Info:
            Public Key Algorithm: rsaEncryption
                Public-Key: (2048 bit)
                Modulus:
                    00:ba:93:66:43:a2:f6:ab:8e:78:17:6a:6f:67:be:
                    41:0a:78:9b:5b:fa:3b:a1:ea:dc:92:c9:4c:4c:1a:
                    69:93:33:a7:b0:16:c7:5d:70:60:1b:68:e8:54:00:
                    04:b7:e5:5e:00:30:59:6b:f3:8c:ef:27:09:ae:06:
                    7f:4f:df:31:71:ee:76:4a:ff:c4:5c:b8:4c:10:e7:
                    a0:f3:23:1b:74:a0:5e:f4:fe:e9:52:9a:dc:7f:25:
                    21:4e:4b:02:43:dd:8d:f4:5c:f0:8e:a5:d9:2c:91:
                    16:d3:64:bf:54:24:9b:e9:0d:ba:80:ea:cd:1d:a7:
                    66:c3:82:4d:59:e3:b6:63:63:7f:4b:52:45:43:99:
                    a8:21:fd:1c:cf:96:0e:ab:0a:0b:a0:1e:db:e2:20:
                    56:e0:f9:52:fd:d9:01:ce:e2:1f:c2:0f:5e:cf:13:
                    4b:86:5d:19:6a:d7:6a:c1:95:db:22:f7:a1:a3:f5:
                    cd:34:24:52:ce:7e:b2:32:f0:47:c5:1f:d6:6a:27:
                    10:2e:6b:b8:6d:25:ac:fd:48:a6:74:b6:8c:7d:5a:
                    b0:08:a6:c4:b6:a5:e1:ba:6a:26:b3:84:43:f9:98:
                    43:55:d0:15:7d:6b:a1:b0:ad:d8:a8:30:88:2d:76:
                    b5:0c:b2:a2:7b:19:3b:05:f9:26:b9:de:c6:08:0d:
                    07:93
                Exponent: 65537 (0x10001)
        X509v3 extensions:
            X509v3 Subject Key Identifier: 
                E0:DF:C9:BB:4D:03:E7:51:7C:B4:51:B2:9A:80:31:77:FD:E4:57:BC
            X509v3 Authority Key Identifier: 
                keyid:E0:DF:C9:BB:4D:03:E7:51:7C:B4:51:B2:9A:80:31:77:FD:E4:57:BC

            X509v3 Basic Constraints: 
                CA:TRUE
    Signature Algorithm: sha1WithRSAEncryption
         4e:f3:16:2a:a1:01:a8:29:90:8b:ef:cb:f7:4e:67:e9:0b:df:
         fb:a9:17:7a:ce:ee:40:cc:39:9b:a4:0f:78:df:d8:84:8f:7b:
         62:fb:ef:86:64:bc:6a:8e:1a:0a:0e:e8:e8:7c:e9:f8:e0:23:
         07:f0:17:c2:a4:c2:85:30:3f:33:dd:a5:b1:a5:92:1f:de:0a:
         ca:3b:8c:82:95:1d:f3:3b:fe:dd:89:cc:a4:78:4e:69:1e:08:
         fc:d5:aa:64:84:bc:9a:f8:50:45:cc:de:23:17:a9:48:20:d4:
         f7:80:31:b5:54:7e:45:e8:df:3f:53:34:8a:60:2d:23:23:1d:
         39:d2:64:cd:41:1e:db:a6:da:98:33:26:74:37:91:e3:b0:da:
         9a:cc:f4:02:2b:3e:42:f5:4d:44:5e:ec:50:a7:29:40:7e:52:
         59:3b:78:e9:66:2b:9e:e8:c1:3a:6b:94:e1:bd:f1:99:ef:38:
         c2:ed:22:82:8f:52:30:8e:4e:cb:a7:1c:e0:89:08:a7:84:16:
         e8:98:b8:35:45:3e:fa:c3:c2:b6:d4:84:a5:f5:e2:84:eb:f4:
         9f:71:d9:e7:44:e0:f6:d7:52:05:e0:d8:fd:6e:9b:26:19:ad:
         e4:3d:da:0c:fe:f5:ed:98:a3:e7:fa:11:86:9b:c7:47:91:52:
         cd:8e:98:be
-----BEGIN CERTIFICATE-----
MIIDtTCCAp2gAwIBAgIBADANBgkqhkiG9w0BAQUFADB1MQswCQYDVQQGEwJJRDEO
MAwGA1UECAwFSmF0aW0xDDAKBgNVBAcMA1NieTELMAkGA1UECgwCYmExDTALBgNV
BAsMBHNhZGExDTALBgNVBAMMBGxpbmExHTAbBgkqhkiG9w0BCQEWDmxpYW5AZ21h
aWwuY29tMB4XDTE1MDUxNzEwMDIzNFoXDTE2MDUxNjEwMDIzNFowdTELMAkGA1UE
BhMCSUQxDjAMBgNVBAgMBUphdGltMQwwCgYDVQQHDANTYnkxCzAJBgNVBAoMAmJh
MQ0wCwYDVQQLDARzYWRhMQ0wCwYDVQQDDARsaW5hMR0wGwYJKoZIhvcNAQkBFg5s
aWFuQGdtYWlsLmNvbTCCASIwDQYJKoZIhvcNAQEBBQADggEPADCCAQoCggEBALqT
ZkOi9quOeBdqb2e+QQp4m1v6O6Hq3JLJTEwaaZMzp7AWx11wYBto6FQABLflXgAw
WWvzjO8nCa4Gf0/fMXHudkr/xFy4TBDnoPMjG3SgXvT+6VKa3H8lIU5LAkPdjfRc
8I6l2SyRFtNkv1Qkm+kNuoDqzR2nZsOCTVnjtmNjf0tSRUOZqCH9HM+WDqsKC6Ae
2+IgVuD5Uv3ZAc7iH8IPXs8TS4ZdGWrXasGV2yL3oaP1zTQkUs5+sjLwR8Uf1mon
EC5ruG0lrP1IpnS2jH1asAimxLal4bpqJrOEQ/mYQ1XQFX1robCt2KgwiC12tQyy
onsZOwX5JrnexggNB5MCAwEAAaNQME4wHQYDVR0OBBYEFODfybtNA+dRfLRRspqA
MXf95Fe8MB8GA1UdIwQYMBaAFODfybtNA+dRfLRRspqAMXf95Fe8MAwGA1UdEwQF
MAMBAf8wDQYJKoZIhvcNAQEFBQADggEBAE7zFiqhAagpkIvvy/dOZ+kL3/upF3rO
7kDMOZukD3jf2ISPe2L774ZkvGqOGgoO6Oh86fjgIwfwF8KkwoUwPzPdpbGlkh/e
Cso7jIKVHfM7/t2JzKR4TmkeCPzVqmSEvJr4UEXM3iMXqUgg1PeAMbVUfkXo3z9T
NIpgLSMjHTnSZM1BHtum2pgzJnQ3keOw2prM9AIrPkL1TURe7FCnKUB+Ulk7eOlm
K57owTprlOG98ZnvOMLtIoKPUjCOTsunHOCJCKeEFuiYuDVFPvrDwrbUhKX14oTr
9J9x2edE4PbXUgXg2P1umyYZreQ92gz+9e2Yo+f6EYabx0eRUs2OmL4=
-----END CERTIFICATE-----
