Certificate:
    Data:
        Version: 3 (0x2)
        Serial Number: 0 (0x0)
    Signature Algorithm: sha1WithRSAEncryption
        Issuer: C=CA, ST=Jawa Timur, L=Surabaya, O=ITS, OU=Informatika, CN=Udin/emailAddress=syalalala@gmail.com
        Validity
            Not Before: May  7 02:50:50 2015 GMT
            Not After : May  6 02:50:50 2016 GMT
        Subject: C=CA, ST=Jawa Timur, L=Surabaya, O=ITS, OU=Informatika, CN=Udin/emailAddress=syalalala@gmail.com
        Subject Public Key Info:
            Public Key Algorithm: rsaEncryption
                Public-Key: (2048 bit)
                Modulus:
                    00:ab:22:3f:52:c7:ff:93:77:31:48:91:2b:5e:35:
                    4b:6e:19:6e:d3:79:bb:19:ac:97:01:98:57:eb:5e:
                    5d:da:c2:1d:1a:f4:02:8f:42:90:cd:4f:eb:3d:67:
                    97:2a:35:25:23:fc:28:76:53:29:4b:81:37:93:09:
                    f9:45:57:0f:65:68:72:28:92:51:f6:7d:d4:aa:fb:
                    c4:c6:44:11:6c:7d:02:9a:65:d0:2c:cc:75:e8:17:
                    46:4b:43:1c:54:07:b4:92:8c:d8:82:61:fe:75:cd:
                    e3:02:3f:7c:85:dc:1d:63:a1:a1:1e:69:90:cb:41:
                    75:8b:e8:b1:a8:ee:8f:79:96:04:d2:b7:61:06:cd:
                    aa:4e:e6:1b:b8:17:97:98:f7:10:49:11:fc:dc:af:
                    9d:85:6f:06:6a:7b:75:e6:dc:74:99:ac:70:a6:f4:
                    54:19:d8:46:eb:25:13:44:d4:85:48:39:04:4e:a5:
                    15:3e:91:be:eb:42:1a:10:06:87:b0:f9:4a:40:03:
                    e4:62:f9:91:fd:59:8f:4a:8e:9b:22:f4:a6:c4:89:
                    60:04:6f:b8:47:c4:1a:c2:e7:52:f9:d5:0b:23:15:
                    d7:bb:a8:44:4d:09:49:9a:36:eb:8a:88:29:28:fa:
                    fe:da:6e:fb:55:28:17:25:4a:e0:9e:e0:41:cd:3f:
                    ce:05
                Exponent: 65537 (0x10001)
        X509v3 extensions:
            X509v3 Subject Key Identifier: 
                4F:AD:CC:3A:52:07:0C:75:9D:D2:30:B3:05:F6:EB:9E:29:80:46:6D
            X509v3 Authority Key Identifier: 
                keyid:4F:AD:CC:3A:52:07:0C:75:9D:D2:30:B3:05:F6:EB:9E:29:80:46:6D

            X509v3 Basic Constraints: 
                CA:TRUE
    Signature Algorithm: sha1WithRSAEncryption
         8e:9e:b0:42:b9:03:c3:38:5a:6e:9c:93:71:50:cc:33:b6:a6:
         8e:bd:f9:53:23:92:0b:c5:38:6c:22:1d:c6:8f:d2:b1:53:6c:
         c5:22:f6:62:f4:79:00:89:f9:02:7c:00:f5:6e:fc:14:48:fe:
         ed:84:35:1e:e2:45:42:cd:89:f2:c1:0d:c0:c3:0f:4b:d4:7e:
         d1:ee:70:f8:d5:11:37:b9:53:55:5d:13:2f:c9:e6:01:fd:f6:
         85:63:2c:63:00:19:2e:d2:b4:86:9a:5b:25:ea:25:db:0e:62:
         25:16:b8:2e:b8:6a:dc:f8:ca:2a:b3:f6:f0:64:72:68:ae:8f:
         1f:61:39:60:50:e2:32:6e:1f:a0:99:82:90:6a:51:77:d8:79:
         91:1f:fd:c0:2e:d0:0d:95:8e:86:a3:96:11:f2:70:3a:e5:a4:
         db:5d:7f:09:cd:2c:a6:28:c9:e6:ca:0a:c9:98:11:74:d5:53:
         fa:8e:82:c4:f0:f0:98:21:88:2e:1b:e5:32:b5:60:62:42:b1:
         b6:02:78:67:92:95:d3:39:bc:18:03:19:02:a7:3f:85:df:b5:
         38:89:0b:f5:9f:00:5d:73:9b:ea:c2:3a:0d:fd:9e:7e:75:f5:
         ae:56:52:e5:7e:a6:63:1a:02:a5:f6:b8:84:2b:59:ff:5a:de:
         c6:e4:c9:2e
-----BEGIN CERTIFICATE-----
MIID5TCCAs2gAwIBAgIBADANBgkqhkiG9w0BAQUFADCBjDELMAkGA1UEBhMCQ0Ex
EzARBgNVBAgMCkphd2EgVGltdXIxETAPBgNVBAcMCFN1cmFiYXlhMQwwCgYDVQQK
DANJVFMxFDASBgNVBAsMC0luZm9ybWF0aWthMQ0wCwYDVQQDDARVZGluMSIwIAYJ
KoZIhvcNAQkBFhNzeWFsYWxhbGFAZ21haWwuY29tMB4XDTE1MDUwNzAyNTA1MFoX
DTE2MDUwNjAyNTA1MFowgYwxCzAJBgNVBAYTAkNBMRMwEQYDVQQIDApKYXdhIFRp
bXVyMREwDwYDVQQHDAhTdXJhYmF5YTEMMAoGA1UECgwDSVRTMRQwEgYDVQQLDAtJ
bmZvcm1hdGlrYTENMAsGA1UEAwwEVWRpbjEiMCAGCSqGSIb3DQEJARYTc3lhbGFs
YWxhQGdtYWlsLmNvbTCCASIwDQYJKoZIhvcNAQEBBQADggEPADCCAQoCggEBAKsi
P1LH/5N3MUiRK141S24ZbtN5uxmslwGYV+teXdrCHRr0Ao9CkM1P6z1nlyo1JSP8
KHZTKUuBN5MJ+UVXD2VociiSUfZ91Kr7xMZEEWx9Appl0CzMdegXRktDHFQHtJKM
2IJh/nXN4wI/fIXcHWOhoR5pkMtBdYvosajuj3mWBNK3YQbNqk7mG7gXl5j3EEkR
/NyvnYVvBmp7debcdJmscKb0VBnYRuslE0TUhUg5BE6lFT6RvutCGhAGh7D5SkAD
5GL5kf1Zj0qOmyL0psSJYARvuEfEGsLnUvnVCyMV17uoRE0JSZo264qIKSj6/tpu
+1UoFyVK4J7gQc0/zgUCAwEAAaNQME4wHQYDVR0OBBYEFE+tzDpSBwx1ndIwswX2
654pgEZtMB8GA1UdIwQYMBaAFE+tzDpSBwx1ndIwswX2654pgEZtMAwGA1UdEwQF
MAMBAf8wDQYJKoZIhvcNAQEFBQADggEBAI6esEK5A8M4Wm6ck3FQzDO2po69+VMj
kgvFOGwiHcaP0rFTbMUi9mL0eQCJ+QJ8APVu/BRI/u2ENR7iRULNifLBDcDDD0vU
ftHucPjVETe5U1VdEy/J5gH99oVjLGMAGS7StIaaWyXqJdsOYiUWuC64atz4yiqz
9vBkcmiujx9hOWBQ4jJuH6CZgpBqUXfYeZEf/cAu0A2VjoajlhHycDrlpNtdfwnN
LKYoyebKCsmYEXTVU/qOgsTw8JghiC4b5TK1YGJCsbYCeGeSldM5vBgDGQKnP4Xf
tTiJC/WfAF1zm+rCOg39nn519a5WUuV+pmMaAqX2uIQrWf9a3sbkyS4=
-----END CERTIFICATE-----
